target datalayout = "e-m:e-p270:32:32-p271:32:32-p272:64:64-i64:64-i128:128-f80:128-n8:16:32:64-S128"
target triple = "x86_64-pc-linux-gnu"

%struct.IDAMemRec = type { double, ptr, ptr, i32, double, double, ptr, i32, ptr, ptr, i32, ptr, ptr, i32, i32, double, double, ptr, i32, i32, i32, ptr, ptr, i32, ptr, ptr, ptr, i32, double, i32, i32, double, ptr, ptr, i32, ptr, ptr, i32, i32, i32, double, ptr, ptr, [6 x ptr], [6 x double], [6 x double], [6 x double], [6 x double], [6 x double], ptr, ptr, ptr, ptr, ptr, ptr, ptr, ptr, ptr, ptr, ptr, ptr, ptr, ptr, ptr, [6 x ptr], ptr, ptr, ptr, ptr, [6 x ptr], ptr, ptr, ptr, ptr, ptr, ptr, ptr, ptr, ptr, ptr, ptr, ptr, ptr, ptr, [6 x ptr], ptr, ptr, ptr, ptr, ptr, double, ptr, ptr, i32, i32, i32, i32, i32, i32, i32, double, double, double, i32, double, i32, i32, i32, i32, double, double, double, double, double, double, double, double, double, double, double, double, double, double, i32, i32, i32, i32, i32, i64, double, i32, i64, i64, i64, i64, i64, i64, i64, i64, i64, i64, i64, i64, i64, i64, i64, i64, i64, i64, i64, i64, i64, i64, i64, i64, ptr, ptr, ptr, i32, i32, i32, i32, i32, i32, i32, i32, i32, i32, i32, i32, i32, ptr, ptr, ptr, ptr, ptr, ptr, i32, i32, i32, i32, i32, i32, double, double, double, ptr, i32, ptr, ptr, double, double, double, ptr, ptr, ptr, double, double, i32, i32, i64, ptr, i32, i32, ptr, i32 }

@.str = private unnamed_addr constant [5 x i8] c"IDAS\00", align 1
@.str.4 = private unnamed_addr constant [24 x i8] c"ida_mem = NULL illegal.\00", align 1
@.str.26 = private unnamed_addr constant [77 x i8] c"Illegal value for ism. Legal values are: IDA_SIMULTANEOUS and IDA_STAGGERED.\00", align 1
@.str.27 = private unnamed_addr constant [21 x i8] c"yyS0 = NULL illegal.\00", align 1
@.str.28 = private unnamed_addr constant [21 x i8] c"ypS0 = NULL illegal.\00", align 1
@.str.29 = private unnamed_addr constant [14 x i8] c"IDASensReInit\00", align 1
@.str.30 = private unnamed_addr constant [52 x i8] c"Illegal attempt to call before calling IDASensInit.\00", align 1

; Function Attrs: nounwind uwtable
define i32 @IDASensReInit(ptr noundef %0, i32 noundef %1, ptr noundef %2, ptr noundef %3) #0 {
  %5 = alloca i32, align 4
  %6 = alloca ptr, align 8
  %7 = alloca i32, align 4
  %8 = alloca ptr, align 8
  %9 = alloca ptr, align 8
  %10 = alloca ptr, align 8
  %11 = alloca i32, align 4
  %12 = alloca i32, align 4
  store ptr %0, ptr %6, align 8, !tbaa !91
  store i32 %1, ptr %7, align 4, !tbaa !88
  store ptr %2, ptr %8, align 8, !tbaa !94
  store ptr %3, ptr %9, align 8, !tbaa !94
  call void @llvm.lifetime.start.p0(i64 8, ptr %10) #8
  call void @llvm.lifetime.start.p0(i64 4, ptr %11) #8
  %13 = load ptr, ptr %6, align 8, !tbaa !91
  %14 = icmp eq ptr %13, null
  br i1 %14, label %15, label %16

15:                                               ; preds = %4
  call void (ptr, i32, ptr, ptr, ptr, ...) @IDAProcessError(ptr noundef null, i32 noundef -20, ptr noundef @.str, ptr noundef @.str.29, ptr noundef @.str.4)
  store i32 -20, ptr %5, align 4
  store i32 1, ptr %12, align 4
  br label %121

16:                                               ; preds = %4
  %17 = load ptr, ptr %6, align 8, !tbaa !91
  store ptr %17, ptr %10, align 8, !tbaa !3
  %18 = load ptr, ptr %10, align 8, !tbaa !3
  %19 = getelementptr inbounds nuw %struct.IDAMemRec, ptr %18, i32 0, i32 167
  %20 = load i32, ptr %19, align 4, !tbaa !83
  %21 = icmp eq i32 %20, 0
  br i1 %21, label %22, label %24

22:                                               ; preds = %16
  %23 = load ptr, ptr %10, align 8, !tbaa !3
  call void (ptr, i32, ptr, ptr, ptr, ...) @IDAProcessError(ptr noundef %23, i32 noundef -40, ptr noundef @.str, ptr noundef @.str.29, ptr noundef @.str.30)
  store i32 -40, ptr %5, align 4
  store i32 1, ptr %12, align 4
  br label %121

24:                                               ; preds = %16
  %25 = load i32, ptr %7, align 4, !tbaa !88
  %26 = icmp ne i32 %25, 1
  br i1 %26, label %27, label %32

27:                                               ; preds = %24
  %28 = load i32, ptr %7, align 4, !tbaa !88
  %29 = icmp ne i32 %28, 2
  br i1 %29, label %30, label %32

30:                                               ; preds = %27
  %31 = load ptr, ptr %10, align 8, !tbaa !3
  call void (ptr, i32, ptr, ptr, ptr, ...) @IDAProcessError(ptr noundef %31, i32 noundef -22, ptr noundef @.str, ptr noundef @.str.29, ptr noundef @.str.26)
  store i32 -22, ptr %5, align 4
  store i32 1, ptr %12, align 4
  br label %121

32:                                               ; preds = %27, %24
  %33 = load i32, ptr %7, align 4, !tbaa !88
  %34 = load ptr, ptr %10, align 8, !tbaa !3
  %35 = getelementptr inbounds nuw %struct.IDAMemRec, ptr %34, i32 0, i32 20
  store i32 %33, ptr %35, align 8, !tbaa !174
  %36 = load ptr, ptr %8, align 8, !tbaa !94
  %37 = icmp eq ptr %36, null
  br i1 %37, label %38, label %40

38:                                               ; preds = %32
  %39 = load ptr, ptr %10, align 8, !tbaa !3
  call void (ptr, i32, ptr, ptr, ptr, ...) @IDAProcessError(ptr noundef %39, i32 noundef -22, ptr noundef @.str, ptr noundef @.str.29, ptr noundef @.str.27)
  store i32 -22, ptr %5, align 4
  store i32 1, ptr %12, align 4
  br label %121

40:                                               ; preds = %32
  %41 = load ptr, ptr %9, align 8, !tbaa !94
  %42 = icmp eq ptr %41, null
  br i1 %42, label %43, label %45

43:                                               ; preds = %40
  %44 = load ptr, ptr %10, align 8, !tbaa !3
  call void (ptr, i32, ptr, ptr, ptr, ...) @IDAProcessError(ptr noundef %44, i32 noundef -22, ptr noundef @.str, ptr noundef @.str.29, ptr noundef @.str.28)
  store i32 -22, ptr %5, align 4
  store i32 1, ptr %12, align 4
  br label %121

45:                                               ; preds = %40
  store i32 0, ptr %11, align 4, !tbaa !88
  br label %46

46:                                               ; preds = %79, %45
  %47 = load i32, ptr %11, align 4, !tbaa !88
  %48 = load ptr, ptr %10, align 8, !tbaa !3
  %49 = getelementptr inbounds nuw %struct.IDAMemRec, ptr %48, i32 0, i32 19
  %50 = load i32, ptr %49, align 4, !tbaa !173
  %51 = icmp slt i32 %47, %50
  br i1 %51, label %52, label %82

52:                                               ; preds = %46
  %53 = load ptr, ptr %8, align 8, !tbaa !94
  %54 = load i32, ptr %11, align 4, !tbaa !88
  %55 = sext i32 %54 to i64
  %56 = getelementptr inbounds ptr, ptr %53, i64 %55
  %57 = load ptr, ptr %56, align 8, !tbaa !93
  %58 = load ptr, ptr %10, align 8, !tbaa !3
  %59 = getelementptr inbounds nuw %struct.IDAMemRec, ptr %58, i32 0, i32 69
  %60 = getelementptr inbounds [6 x ptr], ptr %59, i64 0, i64 0
  %61 = load ptr, ptr %60, align 8, !tbaa !94
  %62 = load i32, ptr %11, align 4, !tbaa !88
  %63 = sext i32 %62 to i64
  %64 = getelementptr inbounds ptr, ptr %61, i64 %63
  %65 = load ptr, ptr %64, align 8, !tbaa !93
  call void @N_VScale(double noundef 1.000000e+00, ptr noundef %57, ptr noundef %65)
  %66 = load ptr, ptr %9, align 8, !tbaa !94
  %67 = load i32, ptr %11, align 4, !tbaa !88
  %68 = sext i32 %67 to i64
  %69 = getelementptr inbounds ptr, ptr %66, i64 %68
  %70 = load ptr, ptr %69, align 8, !tbaa !93
  %71 = load ptr, ptr %10, align 8, !tbaa !3
  %72 = getelementptr inbounds nuw %struct.IDAMemRec, ptr %71, i32 0, i32 69
  %73 = getelementptr inbounds [6 x ptr], ptr %72, i64 0, i64 1
  %74 = load ptr, ptr %73, align 8, !tbaa !94
  %75 = load i32, ptr %11, align 4, !tbaa !88
  %76 = sext i32 %75 to i64
  %77 = getelementptr inbounds ptr, ptr %74, i64 %76
  %78 = load ptr, ptr %77, align 8, !tbaa !93
  call void @N_VScale(double noundef 1.000000e+00, ptr noundef %70, ptr noundef %78)
  br label %79

79:                                               ; preds = %52
  %80 = load i32, ptr %11, align 4, !tbaa !88
  %81 = add nsw i32 %80, 1
  store i32 %81, ptr %11, align 4, !tbaa !88
  br label %46, !llvm.loop !193

82:                                               ; preds = %46
  %83 = load ptr, ptr %10, align 8, !tbaa !3
  %84 = getelementptr inbounds nuw %struct.IDAMemRec, ptr %83, i32 0, i32 134
  store i64 0, ptr %84, align 8, !tbaa !176
  %85 = load ptr, ptr %10, align 8, !tbaa !3
  %86 = getelementptr inbounds nuw %struct.IDAMemRec, ptr %85, i32 0, i32 136
  store i64 0, ptr %86, align 8, !tbaa !177
  %87 = load ptr, ptr %10, align 8, !tbaa !3
  %88 = getelementptr inbounds nuw %struct.IDAMemRec, ptr %87, i32 0, i32 140
  store i64 0, ptr %88, align 8, !tbaa !178
  %89 = load ptr, ptr %10, align 8, !tbaa !3
  %90 = getelementptr inbounds nuw %struct.IDAMemRec, ptr %89, i32 0, i32 143
  store i64 0, ptr %90, align 8, !tbaa !179
  %91 = load ptr, ptr %10, align 8, !tbaa !3
  %92 = getelementptr inbounds nuw %struct.IDAMemRec, ptr %91, i32 0, i32 146
  store i64 0, ptr %92, align 8, !tbaa !180
  %93 = load ptr, ptr %10, align 8, !tbaa !3
  %94 = getelementptr inbounds nuw %struct.IDAMemRec, ptr %93, i32 0, i32 148
  store i64 0, ptr %94, align 8, !tbaa !181
  store i32 0, ptr %11, align 4, !tbaa !88
  br label %95

95:                                               ; preds = %115, %82
  %96 = load i32, ptr %11, align 4, !tbaa !88
  %97 = load ptr, ptr %10, align 8, !tbaa !3
  %98 = getelementptr inbounds nuw %struct.IDAMemRec, ptr %97, i32 0, i32 19
  %99 = load i32, ptr %98, align 4, !tbaa !173
  %100 = icmp slt i32 %96, %99
  br i1 %100, label %101, label %118

101:                                              ; preds = %95
  %102 = load i32, ptr %11, align 4, !tbaa !88
  %103 = load ptr, ptr %10, align 8, !tbaa !3
  %104 = getelementptr inbounds nuw %struct.IDAMemRec, ptr %103, i32 0, i32 26
  %105 = load ptr, ptr %104, align 8, !tbaa !61
  %106 = load i32, ptr %11, align 4, !tbaa !88
  %107 = sext i32 %106 to i64
  %108 = getelementptr inbounds i32, ptr %105, i64 %107
  store i32 %102, ptr %108, align 4, !tbaa !88
  %109 = load ptr, ptr %10, align 8, !tbaa !3
  %110 = getelementptr inbounds nuw %struct.IDAMemRec, ptr %109, i32 0, i32 25
  %111 = load ptr, ptr %110, align 8, !tbaa !60
  %112 = load i32, ptr %11, align 4, !tbaa !88
  %113 = sext i32 %112 to i64
  %114 = getelementptr inbounds double, ptr %111, i64 %113
  store double 1.000000e+00, ptr %114, align 8, !tbaa !92
  br label %115

115:                                              ; preds = %101
  %116 = load i32, ptr %11, align 4, !tbaa !88
  %117 = add nsw i32 %116, 1
  store i32 %117, ptr %11, align 4, !tbaa !88
  br label %95, !llvm.loop !194

118:                                              ; preds = %95
  %119 = load ptr, ptr %10, align 8, !tbaa !3
  %120 = getelementptr inbounds nuw %struct.IDAMemRec, ptr %119, i32 0, i32 18
  store i32 1, ptr %120, align 8, !tbaa !53
  store i32 0, ptr %5, align 4
  store i32 1, ptr %12, align 4
  br label %121

121:                                              ; preds = %118, %43, %38, %30, %22, %15
  call void @llvm.lifetime.end.p0(i64 4, ptr %11) #8
  call void @llvm.lifetime.end.p0(i64 8, ptr %10) #8
  %122 = load i32, ptr %5, align 4
  ret i32 %122
}