; Function Attrs: nounwind uwtable
define range(i32 -40, 1) i32 @IDASensReInit(ptr noundef captures(address_is_null) %0, i32 noundef %1, ptr noundef readonly captures(address_is_null) %2, ptr noundef readonly captures(address_is_null) %3) local_unnamed_addr #0 {
  %5 = icmp eq ptr %0, null
  br i1 %5, label %6, label %7

6:                                                ; preds = %4
  tail call void (ptr, i32, ptr, ptr, ptr, ...) @IDAProcessError(ptr noundef null, i32 noundef -20, ptr noundef nonnull @.str, ptr noundef nonnull @.str.29, ptr noundef nonnull @.str.4)
  br label %66

7:                                                ; preds = %4
  %8 = getelementptr inbounds nuw i8, ptr %0, i64 1572
  %9 = load i32, ptr %8, align 4, !tbaa !159
  %10 = icmp eq i32 %9, 0
  br i1 %10, label %11, label %12

11:                                               ; preds = %7
  tail call void (ptr, i32, ptr, ptr, ptr, ...) @IDAProcessError(ptr noundef nonnull %0, i32 noundef -40, ptr noundef nonnull @.str, ptr noundef nonnull @.str.29, ptr noundef nonnull @.str.30)
  br label %66

12:                                               ; preds = %7
  %13 = add i32 %1, -3
  %or.cond = icmp ult i32 %13, -2
  br i1 %or.cond, label %14, label %15

14:                                               ; preds = %12
  tail call void (ptr, i32, ptr, ptr, ptr, ...) @IDAProcessError(ptr noundef nonnull %0, i32 noundef -22, ptr noundef nonnull @.str, ptr noundef nonnull @.str.29, ptr noundef nonnull @.str.26)
  br label %66

15:                                               ; preds = %12
  %16 = getelementptr inbounds nuw i8, ptr %0, i64 144
  store i32 %1, ptr %16, align 8, !tbaa !140
  %17 = icmp eq ptr %2, null
  br i1 %17, label %18, label %19

18:                                               ; preds = %15
  tail call void (ptr, i32, ptr, ptr, ptr, ...) @IDAProcessError(ptr noundef nonnull %0, i32 noundef -22, ptr noundef nonnull @.str, ptr noundef nonnull @.str.29, ptr noundef nonnull @.str.27)
  br label %66

19:                                               ; preds = %15
  %20 = icmp eq ptr %3, null
  br i1 %20, label %32, label %.preheader

.preheader:                                       ; preds = %19
  %21 = getelementptr inbounds nuw i8, ptr %0, i64 140
  %22 = load i32, ptr %21, align 4, !tbaa !139
  %23 = icmp sgt i32 %22, 0
  br i1 %23, label %.lr.ph, label %._crit_edge.thread

._crit_edge.thread:                               ; preds = %.preheader
  %24 = getelementptr inbounds nuw i8, ptr %0, i64 1344
  store i64 0, ptr %24, align 8, !tbaa !153
  %25 = getelementptr inbounds nuw i8, ptr %0, i64 1360
  store i64 0, ptr %25, align 8, !tbaa !67
  %26 = getelementptr inbounds nuw i8, ptr %0, i64 1392
  store i64 0, ptr %26, align 8, !tbaa !154
  %27 = getelementptr inbounds nuw i8, ptr %0, i64 1416
  store i64 0, ptr %27, align 8, !tbaa !155
  %28 = getelementptr inbounds nuw i8, ptr %0, i64 1440
  store i64 0, ptr %28, align 8, !tbaa !156
  %29 = getelementptr inbounds nuw i8, ptr %0, i64 1456
  store i64 0, ptr %29, align 8, !tbaa !157
  br label %._crit_edge48

.lr.ph:                                           ; preds = %.preheader
  %30 = getelementptr inbounds nuw i8, ptr %0, i64 800
  %31 = getelementptr inbounds nuw i8, ptr %0, i64 808
  br label %33

32:                                               ; preds = %19
  tail call void (ptr, i32, ptr, ptr, ptr, ...) @IDAProcessError(ptr noundef nonnull %0, i32 noundef -22, ptr noundef nonnull @.str, ptr noundef nonnull @.str.29, ptr noundef nonnull @.str.28)
  br label %66

33:                                               ; preds = %.lr.ph, %33
  %indvars.iv = phi i64 [ 0, %.lr.ph ], [ %indvars.iv.next, %33 ]
  %34 = getelementptr inbounds nuw ptr, ptr %2, i64 %indvars.iv
  %35 = load ptr, ptr %34, align 8, !tbaa !57
  %36 = load ptr, ptr %30, align 8, !tbaa !150
  %37 = getelementptr inbounds nuw ptr, ptr %36, i64 %indvars.iv
  %38 = load ptr, ptr %37, align 8, !tbaa !57
  tail call void @N_VScale(double noundef 1.000000e+00, ptr noundef %35, ptr noundef %38) #13
  %39 = getelementptr inbounds nuw ptr, ptr %3, i64 %indvars.iv
  %40 = load ptr, ptr %39, align 8, !tbaa !57
  %41 = load ptr, ptr %31, align 8, !tbaa !150
  %42 = getelementptr inbounds nuw ptr, ptr %41, i64 %indvars.iv
  %43 = load ptr, ptr %42, align 8, !tbaa !57
  tail call void @N_VScale(double noundef 1.000000e+00, ptr noundef %40, ptr noundef %43) #13
  %indvars.iv.next = add nuw nsw i64 %indvars.iv, 1
  %44 = load i32, ptr %21, align 4, !tbaa !139
  %45 = sext i32 %44 to i64
  %46 = icmp slt i64 %indvars.iv.next, %45
  br i1 %46, label %33, label %._crit_edge, !llvm.loop !160

._crit_edge:                                      ; preds = %33
  %47 = icmp sgt i32 %44, 0
  %48 = getelementptr inbounds nuw i8, ptr %0, i64 1344
  store i64 0, ptr %48, align 8, !tbaa !153
  %49 = getelementptr inbounds nuw i8, ptr %0, i64 1360
  store i64 0, ptr %49, align 8, !tbaa !67
  %50 = getelementptr inbounds nuw i8, ptr %0, i64 1392
  store i64 0, ptr %50, align 8, !tbaa !154
  %51 = getelementptr inbounds nuw i8, ptr %0, i64 1416
  store i64 0, ptr %51, align 8, !tbaa !155
  %52 = getelementptr inbounds nuw i8, ptr %0, i64 1440
  store i64 0, ptr %52, align 8, !tbaa !156
  %53 = getelementptr inbounds nuw i8, ptr %0, i64 1456
  store i64 0, ptr %53, align 8, !tbaa !157
  br i1 %47, label %.lr.ph47, label %._crit_edge48

.lr.ph47:                                         ; preds = %._crit_edge
  %54 = getelementptr inbounds nuw i8, ptr %0, i64 192
  %55 = load ptr, ptr %54, align 8, !tbaa !61
  %56 = getelementptr inbounds nuw i8, ptr %0, i64 184
  %57 = load ptr, ptr %56, align 8, !tbaa !59
  br label %58

58:                                               ; preds = %.lr.ph47, %58
  %indvars.iv50 = phi i64 [ 0, %.lr.ph47 ], [ %indvars.iv.next51, %58 ]
  %59 = getelementptr inbounds nuw i32, ptr %55, i64 %indvars.iv50
  %60 = trunc nuw nsw i64 %indvars.iv50 to i32
  store i32 %60, ptr %59, align 4, !tbaa !62
  %61 = getelementptr inbounds nuw double, ptr %57, i64 %indvars.iv50
  store double 1.000000e+00, ptr %61, align 8, !tbaa !60
  %indvars.iv.next51 = add nuw nsw i64 %indvars.iv50, 1
  %62 = load i32, ptr %21, align 4, !tbaa !139
  %63 = sext i32 %62 to i64
  %64 = icmp slt i64 %indvars.iv.next51, %63
  br i1 %64, label %58, label %._crit_edge48, !llvm.loop !161

._crit_edge48:                                    ; preds = %58, %._crit_edge.thread, %._crit_edge
  %65 = getelementptr inbounds nuw i8, ptr %0, i64 136
  store i32 1, ptr %65, align 8, !tbaa !37
  br label %66

66:                                               ; preds = %._crit_edge48, %32, %18, %14, %11, %6
  %.040 = phi i32 [ -20, %6 ], [ -40, %11 ], [ -22, %14 ], [ -22, %18 ], [ -22, %32 ], [ 0, %._crit_edge48 ]
  ret i32 %.040
}